; Function Attrs: nounwind uwtable
define internal fastcc void @SetInitialProfile(ptr noundef readonly captures(none) %0, ptr noundef %1, ptr noundef %2, ptr noundef %3, ptr noundef %4) unnamed_addr #0 {
  %6 = load i64, ptr %0, align 8, !tbaa !11
  %7 = add nsw i64 %6, -1
  %8 = tail call ptr @N_VGetArrayPointer(ptr noundef %1) #9
  %9 = tail call ptr @N_VGetArrayPointer(ptr noundef %2) #9
  %10 = tail call ptr @N_VGetArrayPointer(ptr noundef %3) #9
  tail call void @N_VConst(double noundef 1.000000e+00, ptr noundef %3) #9
  %11 = icmp sgt i64 %6, 0
  br i1 %11, label %.lr.ph64, label %._crit_edge65

.lr.ph64:                                         ; preds = %5
  %12 = getelementptr inbounds nuw i8, ptr %0, i64 8
  br label %.lr.ph.us

.lr.ph.us:                                        ; preds = %._crit_edge.us, %.lr.ph64
  %.062.us = phi i64 [ 0, %.lr.ph64 ], [ %30, %._crit_edge.us ]
  %13 = load double, ptr %12, align 8, !tbaa !15
  %14 = uitofp nneg i64 %.062.us to double
  %15 = fmul double %13, %14
  %16 = mul nuw nsw i64 %.062.us, %6
  %17 = fsub double 1.000000e+00, %15
  %18 = getelementptr double, ptr %8, i64 %16
  br label %19

19:                                               ; preds = %.lr.ph.us, %19
  %.05561.us = phi i64 [ 0, %.lr.ph.us ], [ %29, %19 ]
  %20 = load double, ptr %12, align 8, !tbaa !15
  %21 = uitofp nneg i64 %.05561.us to double
  %22 = fmul double %20, %21
  %23 = fmul double %22, 1.600000e+01
  %24 = fsub double 1.000000e+00, %22
  %25 = fmul double %23, %24
  %26 = fmul double %15, %25
  %27 = fmul double %17, %26
  %28 = getelementptr double, ptr %18, i64 %.05561.us
  store double %27, ptr %28, align 8, !tbaa !18
  %29 = add nuw nsw i64 %.05561.us, 1
  %exitcond.not = icmp eq i64 %29, %6
  br i1 %exitcond.not, label %._crit_edge.us, label %19

._crit_edge.us:                                   ; preds = %19
  %30 = add nuw nsw i64 %.062.us, 1
  %exitcond81.not = icmp eq i64 %30, %6
  br i1 %exitcond81.not, label %._crit_edge65, label %.lr.ph.us

._crit_edge65:                                    ; preds = %._crit_edge.us, %5
  tail call void @N_VConst(double noundef 0.000000e+00, ptr noundef %2) #9
  %31 = tail call ptr @N_VGetArrayPointer(ptr noundef %1) #9
  %32 = tail call ptr @N_VGetArrayPointer(ptr noundef %2) #9
  %33 = tail call ptr @N_VGetArrayPointer(ptr noundef %4) #9
  %34 = load i64, ptr %0, align 8, !tbaa !11
  %35 = getelementptr inbounds nuw i8, ptr %0, i64 16
  %36 = load double, ptr %35, align 8, !tbaa !16
  tail call void @N_VScale(double noundef 1.000000e+00, ptr noundef %1, ptr noundef %4) #9
  %37 = add i64 %34, -1
  %38 = icmp sgt i64 %34, 2
  br i1 %38, label %.lr.ph39.i, label %heatres.exit

.lr.ph39.i:                                       ; preds = %._crit_edge65
  %39 = fneg double %36
  br label %.lr.ph.us.i

.lr.ph.us.i:                                      ; preds = %._crit_edge.us.i, %.lr.ph39.i
  %.03437.us.i = phi i64 [ 1, %.lr.ph39.i ], [ %63, %._crit_edge.us.i ]
  %40 = mul nuw nsw i64 %.03437.us.i, %34
  br label %41

41:                                               ; preds = %41, %.lr.ph.us.i
  %.036.us.i = phi i64 [ 1, %.lr.ph.us.i ], [ %62, %41 ]
  %42 = add nuw nsw i64 %.036.us.i, %40
  %43 = getelementptr inbounds nuw double, ptr %32, i64 %42
  %44 = load double, ptr %43, align 8, !tbaa !18
  %45 = getelementptr double, ptr %31, i64 %42
  %46 = getelementptr i8, ptr %45, i64 -8
  %47 = load double, ptr %46, align 8, !tbaa !18
  %48 = getelementptr i8, ptr %45, i64 8
  %49 = load double, ptr %48, align 8, !tbaa !18
  %50 = fadd double %47, %49
  %51 = sub nsw i64 %42, %34
  %52 = getelementptr inbounds double, ptr %31, i64 %51
  %53 = load double, ptr %52, align 8, !tbaa !18
  %54 = fadd double %50, %53
  %55 = getelementptr double, ptr %45, i64 %34
  %56 = load double, ptr %55, align 8, !tbaa !18
  %57 = fadd double %54, %56
  %58 = load double, ptr %45, align 8, !tbaa !18
  %59 = tail call double @llvm.fmuladd.f64(double %58, double -4.000000e+00, double %57)
  %60 = tail call double @llvm.fmuladd.f64(double %39, double %59, double %44)
  %61 = getelementptr inbounds nuw double, ptr %33, i64 %42
  store double %60, ptr %61, align 8, !tbaa !18
  %62 = add nuw nsw i64 %.036.us.i, 1
  %exitcond.not.i = icmp eq i64 %62, %37
  br i1 %exitcond.not.i, label %._crit_edge.us.i, label %41

._crit_edge.us.i:                                 ; preds = %41
  %63 = add nuw nsw i64 %.03437.us.i, 1
  %exitcond41.not.i = icmp eq i64 %63, %37
  br i1 %exitcond41.not.i, label %heatres.exit, label %.lr.ph.us.i

heatres.exit:                                     ; preds = %._crit_edge.us.i, %._crit_edge65
  tail call void @N_VScale(double noundef -1.000000e+00, ptr noundef %4, ptr noundef %2) #9
  br i1 %11, label %.lr.ph.us73, label %._crit_edge71

.lr.ph.us73:                                      ; preds = %heatres.exit, %._crit_edge.us76
  %.169.us = phi i64 [ %76, %._crit_edge.us76 ], [ 0, %heatres.exit ]
  %64 = mul nuw nsw i64 %.169.us, %6
  %65 = icmp eq i64 %.169.us, 0
  br i1 %65, label %.lr.ph.split.us.us, label %.lr.ph.split.us75

.lr.ph.split.split.us77:                          ; preds = %.lr.ph.split.us75, %73
  %.15666.us72 = phi i64 [ %74, %73 ], [ 0, %.lr.ph.split.us75 ]
  %66 = icmp eq i64 %.15666.us72, 0
  %67 = icmp eq i64 %.15666.us72, %7
  %or.cond60.us = or i1 %67, %66
  br i1 %or.cond60.us, label %68, label %73

68:                                               ; preds = %.lr.ph.split.split.us77
  %69 = add nuw nsw i64 %.15666.us72, %64
  %70 = getelementptr inbounds nuw double, ptr %8, i64 %69
  store double 1.000000e-01, ptr %70, align 8, !tbaa !18
  %71 = getelementptr inbounds nuw double, ptr %9, i64 %69
  store double 0.000000e+00, ptr %71, align 8, !tbaa !18
  %72 = getelementptr inbounds nuw double, ptr %10, i64 %69
  store double 0.000000e+00, ptr %72, align 8, !tbaa !18
  br label %73

73:                                               ; preds = %68, %.lr.ph.split.split.us77
  %74 = add nuw nsw i64 %.15666.us72, 1
  %exitcond82.not = icmp eq i64 %74, %6
  br i1 %exitcond82.not, label %._crit_edge.us76, label %.lr.ph.split.split.us77

.lr.ph.split.us75:                                ; preds = %.lr.ph.us73
  %75 = icmp eq i64 %.169.us, %7
  %.fr.us = freeze i1 %75
  br i1 %.fr.us, label %.lr.ph.split.split.us.us, label %.lr.ph.split.split.us77

._crit_edge.us76:                                 ; preds = %73, %.lr.ph.split.split.us.us, %.lr.ph.split.us.us
  %76 = add nuw nsw i64 %.169.us, 1
  %exitcond85.not = icmp eq i64 %76, %6
  br i1 %exitcond85.not, label %._crit_edge71, label %.lr.ph.us73

.lr.ph.split.us.us:                               ; preds = %.lr.ph.us73, %.lr.ph.split.us.us
  %.15666.us.us = phi i64 [ %80, %.lr.ph.split.us.us ], [ 0, %.lr.ph.us73 ]
  %77 = getelementptr inbounds nuw double, ptr %8, i64 %.15666.us.us
  store double 1.000000e-01, ptr %77, align 8, !tbaa !18
  %78 = getelementptr inbounds nuw double, ptr %9, i64 %.15666.us.us
  store double 0.000000e+00, ptr %78, align 8, !tbaa !18
  %79 = getelementptr inbounds nuw double, ptr %10, i64 %.15666.us.us
  store double 0.000000e+00, ptr %79, align 8, !tbaa !18
  %80 = add nuw nsw i64 %.15666.us.us, 1
  %exitcond84.not = icmp eq i64 %80, %6
  br i1 %exitcond84.not, label %._crit_edge.us76, label %.lr.ph.split.us.us

.lr.ph.split.split.us.us:                         ; preds = %.lr.ph.split.us75, %.lr.ph.split.split.us.us
  %.15666.us68.us = phi i64 [ %85, %.lr.ph.split.split.us.us ], [ 0, %.lr.ph.split.us75 ]
  %81 = add nuw nsw i64 %.15666.us68.us, %64
  %82 = getelementptr inbounds nuw double, ptr %8, i64 %81
  store double 1.000000e-01, ptr %82, align 8, !tbaa !18
  %83 = getelementptr inbounds nuw double, ptr %9, i64 %81
  store double 0.000000e+00, ptr %83, align 8, !tbaa !18
  %84 = getelementptr inbounds nuw double, ptr %10, i64 %81
  store double 0.000000e+00, ptr %84, align 8, !tbaa !18
  %85 = add nuw nsw i64 %.15666.us68.us, 1
  %exitcond83.not = icmp eq i64 %85, %6
  br i1 %exitcond83.not, label %._crit_edge.us76, label %.lr.ph.split.split.us.us

._crit_edge71:                                    ; preds = %._crit_edge.us76, %heatres.exit
  ret void
}